target datalayout = "e-m:e-p270:32:32-p271:32:32-p272:64:64-i64:64-i128:128-f80:128-n8:16:32:64-S128"
target triple = "x86_64-pc-linux-gnu"

%struct.quic_rcidm_st = type { %struct.quic_conn_id_st, %struct.quic_conn_id_st, %struct.quic_conn_id_st, i64, i64, i64, ptr, ptr, %struct.ossl_list_st_retiring, i64, i8 }
%struct.quic_conn_id_st = type { i8, [20 x i8] }
%struct.ossl_list_st_retiring = type { ptr, ptr, i64 }

; Function Attrs: nounwind uwtable
define i32 @ossl_quic_rcidm_get_preferred_tx_dcid_changed(ptr noundef %0, i32 noundef %1) #0 {
  %3 = alloca ptr, align 8
  %4 = alloca i32, align 4
  %5 = alloca i32, align 4
  store ptr %0, ptr %3, align 8, !tbaa !8
  store i32 %1, ptr %4, align 4, !tbaa !36
  call void @llvm.lifetime.start.p0(i64 4, ptr %5) #7
  %6 = load ptr, ptr %3, align 8, !tbaa !8
  %7 = getelementptr inbounds nuw %struct.quic_rcidm_st, ptr %6, i32 0, i32 10
  %8 = load i8, ptr %7, align 8
  %9 = and i8 %8, 1
  %10 = zext i8 %9 to i32
  store i32 %10, ptr %5, align 4, !tbaa !36
  %11 = load i32, ptr %4, align 4, !tbaa !36
  %12 = icmp ne i32 %11, 0
  br i1 %12, label %13, label %19

13:                                               ; preds = %2
  %14 = load ptr, ptr %3, align 8, !tbaa !8
  %15 = getelementptr inbounds nuw %struct.quic_rcidm_st, ptr %14, i32 0, i32 10
  %16 = load i8, ptr %15, align 8
  %17 = and i8 %16, -2
  %18 = or i8 %17, 0
  store i8 %18, ptr %15, align 8
  br label %19

19:                                               ; preds = %13, %2
  %20 = load i32, ptr %5, align 4, !tbaa !36
  call void @llvm.lifetime.end.p0(i64 4, ptr %5) #7
  ret i32 %20
}