; Function Attrs: mustprogress nofree norecurse nosync nounwind willreturn memory(argmem: readwrite) uwtable
define range(i32 0, 2) i32 @ossl_quic_rcidm_get_preferred_tx_dcid_changed(ptr noundef captures(none) %0, i32 noundef %1) local_unnamed_addr #5 {
  %3 = getelementptr inbounds nuw i8, ptr %0, i64 136
  %4 = load i8, ptr %3, align 8
  %.not = icmp eq i32 %1, 0
  br i1 %.not, label %7, label %5

5:                                                ; preds = %2
  %6 = and i8 %4, -2
  store i8 %6, ptr %3, align 8
  br label %7

7:                                                ; preds = %5, %2
  %8 = and i8 %4, 1
  %9 = zext nneg i8 %8 to i32
  ret i32 %9
}